target datalayout = "e-m:e-p270:32:32-p271:32:32-p272:64:64-i64:64-i128:128-f80:128-n8:16:32:64-S128"
target triple = "x86_64-pc-linux-gnu"

; Function Attrs: inlinehint nounwind uwtable
define internal i32 @chomp_trailing_dir_sep(ptr noundef %0, i32 noundef %1) #2 {
  %3 = alloca ptr, align 8
  %4 = alloca i32, align 4
  store ptr %0, ptr %3, align 8, !tbaa !43
  store i32 %1, ptr %4, align 4, !tbaa !4
  br label %5

5:                                                ; preds = %20, %2
  %6 = load i32, ptr %4, align 4, !tbaa !4
  %7 = icmp ne i32 %6, 0
  br i1 %7, label %8, label %18

8:                                                ; preds = %5
  %9 = load ptr, ptr %3, align 8, !tbaa !43
  %10 = load i32, ptr %4, align 4, !tbaa !4
  %11 = sub nsw i32 %10, 1
  %12 = sext i32 %11 to i64
  %13 = getelementptr inbounds i8, ptr %9, i64 %12
  %14 = load i8, ptr %13, align 1, !tbaa !18
  %15 = sext i8 %14 to i32
  %16 = call i32 @git_is_dir_sep(i32 noundef %15)
  %17 = icmp ne i32 %16, 0
  br label %18

18:                                               ; preds = %8, %5
  %19 = phi i1 [ false, %5 ], [ %17, %8 ]
  br i1 %19, label %20, label %23

20:                                               ; preds = %18
  %21 = load i32, ptr %4, align 4, !tbaa !4
  %22 = add nsw i32 %21, -1
  store i32 %22, ptr %4, align 4, !tbaa !4
  br label %5, !llvm.loop !140

23:                                               ; preds = %18
  %24 = load i32, ptr %4, align 4, !tbaa !4
  ret i32 %24
}

; Function Attrs: inlinehint nounwind uwtable
define internal i32 @git_is_dir_sep(i32 noundef %0) #2 {
  %2 = alloca i32, align 4
  store i32 %0, ptr %2, align 4, !tbaa !4
  %3 = load i32, ptr %2, align 4, !tbaa !4
  %4 = icmp eq i32 %3, 47
  %5 = zext i1 %4 to i32
  ret i32 %5
}

; Function Attrs: nounwind uwtable
define internal i64 @stripped_path_suffix_offset(ptr noundef %0, ptr noundef %1) #0 {
  %3 = alloca i64, align 8
  %4 = alloca ptr, align 8
  %5 = alloca ptr, align 8
  %6 = alloca i32, align 4
  %7 = alloca i32, align 4
  %8 = alloca i32, align 4
  store ptr %0, ptr %4, align 8, !tbaa !43
  store ptr %1, ptr %5, align 8, !tbaa !43
  call void @llvm.lifetime.start.p0(i64 4, ptr %6) #12
  %9 = load ptr, ptr %4, align 8, !tbaa !43
  %10 = call i64 @strlen(ptr noundef %9) #14
  %11 = trunc i64 %10 to i32
  store i32 %11, ptr %6, align 4, !tbaa !4
  call void @llvm.lifetime.start.p0(i64 4, ptr %7) #12
  %12 = load ptr, ptr %5, align 8, !tbaa !43
  %13 = call i64 @strlen(ptr noundef %12) #14
  %14 = trunc i64 %13 to i32
  store i32 %14, ptr %7, align 4, !tbaa !4
  br label %15

15:                                               ; preds = %68, %2
  %16 = load i32, ptr %7, align 4, !tbaa !4
  %17 = icmp ne i32 %16, 0
  br i1 %17, label %18, label %69

18:                                               ; preds = %15
  %19 = load i32, ptr %6, align 4, !tbaa !4
  %20 = icmp ne i32 %19, 0
  br i1 %20, label %22, label %21

21:                                               ; preds = %18
  store i64 -1, ptr %3, align 8
  store i32 1, ptr %8, align 4
  br label %88

22:                                               ; preds = %18
  %23 = load ptr, ptr %4, align 8, !tbaa !43
  %24 = load i32, ptr %6, align 4, !tbaa !4
  %25 = sub nsw i32 %24, 1
  %26 = sext i32 %25 to i64
  %27 = getelementptr inbounds i8, ptr %23, i64 %26
  %28 = load i8, ptr %27, align 1, !tbaa !18
  %29 = sext i8 %28 to i32
  %30 = call i32 @git_is_dir_sep(i32 noundef %29)
  %31 = icmp ne i32 %30, 0
  br i1 %31, label %32, label %50

32:                                               ; preds = %22
  %33 = load ptr, ptr %5, align 8, !tbaa !43
  %34 = load i32, ptr %7, align 4, !tbaa !4
  %35 = sub nsw i32 %34, 1
  %36 = sext i32 %35 to i64
  %37 = getelementptr inbounds i8, ptr %33, i64 %36
  %38 = load i8, ptr %37, align 1, !tbaa !18
  %39 = sext i8 %38 to i32
  %40 = call i32 @git_is_dir_sep(i32 noundef %39)
  %41 = icmp ne i32 %40, 0
  br i1 %41, label %43, label %42

42:                                               ; preds = %32
  store i64 -1, ptr %3, align 8
  store i32 1, ptr %8, align 4
  br label %88

43:                                               ; preds = %32
  %44 = load ptr, ptr %4, align 8, !tbaa !43
  %45 = load i32, ptr %6, align 4, !tbaa !4
  %46 = call i32 @chomp_trailing_dir_sep(ptr noundef %44, i32 noundef %45)
  store i32 %46, ptr %6, align 4, !tbaa !4
  %47 = load ptr, ptr %5, align 8, !tbaa !43
  %48 = load i32, ptr %7, align 4, !tbaa !4
  %49 = call i32 @chomp_trailing_dir_sep(ptr noundef %47, i32 noundef %48)
  store i32 %49, ptr %7, align 4, !tbaa !4
  br label %68

50:                                               ; preds = %22
  %51 = load ptr, ptr %4, align 8, !tbaa !43
  %52 = load i32, ptr %6, align 4, !tbaa !4
  %53 = add nsw i32 %52, -1
  store i32 %53, ptr %6, align 4, !tbaa !4
  %54 = sext i32 %53 to i64
  %55 = getelementptr inbounds i8, ptr %51, i64 %54
  %56 = load i8, ptr %55, align 1, !tbaa !18
  %57 = sext i8 %56 to i32
  %58 = load ptr, ptr %5, align 8, !tbaa !43
  %59 = load i32, ptr %7, align 4, !tbaa !4
  %60 = add nsw i32 %59, -1
  store i32 %60, ptr %7, align 4, !tbaa !4
  %61 = sext i32 %60 to i64
  %62 = getelementptr inbounds i8, ptr %58, i64 %61
  %63 = load i8, ptr %62, align 1, !tbaa !18
  %64 = sext i8 %63 to i32
  %65 = icmp ne i32 %57, %64
  br i1 %65, label %66, label %67

66:                                               ; preds = %50
  store i64 -1, ptr %3, align 8
  store i32 1, ptr %8, align 4
  br label %88

67:                                               ; preds = %50
  br label %68

68:                                               ; preds = %67, %43
  br label %15, !llvm.loop !119

69:                                               ; preds = %15
  %70 = load i32, ptr %6, align 4, !tbaa !4
  %71 = icmp ne i32 %70, 0
  br i1 %71, label %72, label %83

72:                                               ; preds = %69
  %73 = load ptr, ptr %4, align 8, !tbaa !43
  %74 = load i32, ptr %6, align 4, !tbaa !4
  %75 = sub nsw i32 %74, 1
  %76 = sext i32 %75 to i64
  %77 = getelementptr inbounds i8, ptr %73, i64 %76
  %78 = load i8, ptr %77, align 1, !tbaa !18
  %79 = sext i8 %78 to i32
  %80 = call i32 @git_is_dir_sep(i32 noundef %79)
  %81 = icmp ne i32 %80, 0
  br i1 %81, label %83, label %82

82:                                               ; preds = %72
  store i64 -1, ptr %3, align 8
  store i32 1, ptr %8, align 4
  br label %88

83:                                               ; preds = %72, %69
  %84 = load ptr, ptr %4, align 8, !tbaa !43
  %85 = load i32, ptr %6, align 4, !tbaa !4
  %86 = call i32 @chomp_trailing_dir_sep(ptr noundef %84, i32 noundef %85)
  %87 = sext i32 %86 to i64
  store i64 %87, ptr %3, align 8
  store i32 1, ptr %8, align 4
  br label %88

88:                                               ; preds = %83, %82, %66, %42, %21
  call void @llvm.lifetime.end.p0(i64 4, ptr %7) #12
  call void @llvm.lifetime.end.p0(i64 4, ptr %6) #12
  %89 = load i64, ptr %3, align 8
  ret i64 %89
}