; Function Attrs: nofree nounwind memory(argmem: read) uwtable
define internal fastcc range(i64 -2147483648, 2147483648) i64 @stripped_path_suffix_offset(ptr noundef readonly captures(none) %0, ptr noundef readonly captures(none) %1) unnamed_addr #18 {
  %3 = tail call i64 @strlen(ptr noundef nonnull dereferenceable(1) %0) #30
  %4 = trunc i64 %3 to i32
  %5 = tail call i64 @strlen(ptr noundef nonnull dereferenceable(1) %1) #30
  %6 = trunc i64 %5 to i32
  %invariant.gep = getelementptr i8, ptr %0, i64 -1
  %invariant.gep65 = getelementptr i8, ptr %1, i64 -1
  %.not67 = icmp eq i32 %6, 0
  br i1 %.not67, label %._crit_edge, label %.lr.ph

.lr.ph:                                           ; preds = %2, %chomp_trailing_dir_sep.exit42
  %.069 = phi i32 [ %.1, %chomp_trailing_dir_sep.exit42 ], [ %6, %2 ]
  %.02168 = phi i32 [ %.122, %chomp_trailing_dir_sep.exit42 ], [ %4, %2 ]
  %.not27 = icmp eq i32 %.02168, 0
  br i1 %.not27, label %.split, label %7

7:                                                ; preds = %.lr.ph
  %8 = sext i32 %.02168 to i64
  %gep = getelementptr i8, ptr %invariant.gep, i64 %8
  %9 = load i8, ptr %gep, align 1, !tbaa !14
  %.not57 = icmp eq i8 %9, 47
  br i1 %.not57, label %10, label %19

10:                                               ; preds = %7
  %11 = sext i32 %.069 to i64
  %gep66 = getelementptr i8, ptr %invariant.gep65, i64 %11
  %12 = load i8, ptr %gep66, align 1, !tbaa !14
  %.not58 = icmp eq i8 %12, 47
  br i1 %.not58, label %.lr.ph.i, label %.split

.lr.ph.i:                                         ; preds = %10, %14
  %indvars.iv.i = phi i64 [ %indvars.iv.next.i, %14 ], [ %8, %10 ]
  %gep.i = getelementptr i8, ptr %invariant.gep, i64 %indvars.iv.i
  %13 = load i8, ptr %gep.i, align 1, !tbaa !14
  %.not5.i = icmp eq i8 %13, 47
  br i1 %.not5.i, label %14, label %.critedge.loopexit.split.loop.exit11.i

14:                                               ; preds = %.lr.ph.i
  %indvars.iv.next.i = add nsw i64 %indvars.iv.i, -1
  %.not.i = icmp eq i64 %indvars.iv.next.i, 0
  br i1 %.not.i, label %.lr.ph.preheader.i33, label %.lr.ph.i, !llvm.loop !102

.critedge.loopexit.split.loop.exit11.i:           ; preds = %.lr.ph.i
  %15 = trunc nsw i64 %indvars.iv.i to i32
  br label %.lr.ph.preheader.i33

.lr.ph.preheader.i33:                             ; preds = %14, %.critedge.loopexit.split.loop.exit11.i
  %.0.lcssa.i = phi i32 [ %15, %.critedge.loopexit.split.loop.exit11.i ], [ 0, %14 ]
  br label %.lr.ph.i34

.lr.ph.i34:                                       ; preds = %17, %.lr.ph.preheader.i33
  %indvars.iv.i35 = phi i64 [ %11, %.lr.ph.preheader.i33 ], [ %indvars.iv.next.i40, %17 ]
  %gep.i36 = getelementptr i8, ptr %invariant.gep65, i64 %indvars.iv.i35
  %16 = load i8, ptr %gep.i36, align 1, !tbaa !14
  %.not5.i37 = icmp eq i8 %16, 47
  br i1 %.not5.i37, label %17, label %.critedge.loopexit.split.loop.exit11.i38

17:                                               ; preds = %.lr.ph.i34
  %indvars.iv.next.i40 = add nsw i64 %indvars.iv.i35, -1
  %.not.i41 = icmp eq i64 %indvars.iv.next.i40, 0
  br i1 %.not.i41, label %._crit_edge, label %.lr.ph.i34, !llvm.loop !102

.critedge.loopexit.split.loop.exit11.i38:         ; preds = %.lr.ph.i34
  %18 = trunc nsw i64 %indvars.iv.i35 to i32
  br label %chomp_trailing_dir_sep.exit42

19:                                               ; preds = %7
  %20 = add nsw i32 %.02168, -1
  %21 = add nsw i32 %.069, -1
  %22 = sext i32 %21 to i64
  %23 = getelementptr inbounds i8, ptr %1, i64 %22
  %24 = load i8, ptr %23, align 1, !tbaa !14
  %.not29 = icmp eq i8 %9, %24
  br i1 %.not29, label %chomp_trailing_dir_sep.exit42, label %.split

chomp_trailing_dir_sep.exit42:                    ; preds = %.critedge.loopexit.split.loop.exit11.i38, %19
  %.122 = phi i32 [ %20, %19 ], [ %.0.lcssa.i, %.critedge.loopexit.split.loop.exit11.i38 ]
  %.1 = phi i32 [ %21, %19 ], [ %18, %.critedge.loopexit.split.loop.exit11.i38 ]
  %.not = icmp eq i32 %.1, 0
  br i1 %.not, label %._crit_edge, label %.lr.ph, !llvm.loop !103

._crit_edge:                                      ; preds = %chomp_trailing_dir_sep.exit42, %17, %2
  %.021.lcssa = phi i32 [ %4, %2 ], [ %.0.lcssa.i, %17 ], [ %.122, %chomp_trailing_dir_sep.exit42 ]
  %.not25 = icmp eq i32 %.021.lcssa, 0
  br i1 %.not25, label %.split, label %25

25:                                               ; preds = %._crit_edge
  %26 = sext i32 %.021.lcssa to i64
  %27 = getelementptr i8, ptr %0, i64 %26
  %28 = getelementptr i8, ptr %27, i64 -1
  %29 = load i8, ptr %28, align 1, !tbaa !14
  %.not59 = icmp eq i8 %29, 47
  br i1 %.not59, label %.lr.ph.i48, label %.split

.lr.ph.i48:                                       ; preds = %25, %31
  %indvars.iv.i49 = phi i64 [ %indvars.iv.next.i54, %31 ], [ %26, %25 ]
  %gep.i50 = getelementptr i8, ptr %invariant.gep, i64 %indvars.iv.i49
  %30 = load i8, ptr %gep.i50, align 1, !tbaa !14
  %.not5.i51 = icmp eq i8 %30, 47
  br i1 %.not5.i51, label %31, label %.critedge.loopexit.split.loop.exit11.i52

31:                                               ; preds = %.lr.ph.i48
  %indvars.iv.next.i54 = add nsw i64 %indvars.iv.i49, -1
  %.not.i55 = icmp eq i64 %indvars.iv.next.i54, 0
  br i1 %.not.i55, label %.split, label %.lr.ph.i48, !llvm.loop !102

.critedge.loopexit.split.loop.exit11.i52:         ; preds = %.lr.ph.i48
  %sext = shl i64 %indvars.iv.i49, 32
  %32 = ashr exact i64 %sext, 32
  br label %.split

.split:                                           ; preds = %19, %10, %.lr.ph, %31, %._crit_edge, %.critedge.loopexit.split.loop.exit11.i52, %25
  %.023 = phi i64 [ -1, %25 ], [ 0, %._crit_edge ], [ %32, %.critedge.loopexit.split.loop.exit11.i52 ], [ 0, %31 ], [ -1, %.lr.ph ], [ -1, %10 ], [ -1, %19 ]
  ret i64 %.023
}